; Function Attrs: mustprogress nofree norecurse nosync nounwind willreturn memory(readwrite, inaccessiblemem: none) uwtable
define void @_Z13dd_dlb_unlockP12gmx_domdec_t(ptr noundef readonly captures(none) %0) local_unnamed_addr #7 {
  %2 = getelementptr inbounds nuw i8, ptr %0, i64 320
  %3 = load ptr, ptr %2, align 8
  %4 = getelementptr inbounds nuw i8, ptr %3, i64 368
  %5 = load i32, ptr %4, align 8
  %6 = icmp eq i32 %5, 3
  br i1 %6, label %7, label %_Z46dd_dlb_set_should_check_whether_to_turn_dlb_onP12gmx_domdec_tb.exit

7:                                                ; preds = %1
  store i32 2, ptr %4, align 8
  %8 = load ptr, ptr %2, align 8
  %9 = getelementptr inbounds nuw i8, ptr %8, i64 368
  %10 = load i32, ptr %9, align 8
  %11 = icmp eq i32 %10, 2
  br i1 %11, label %12, label %_Z46dd_dlb_set_should_check_whether_to_turn_dlb_onP12gmx_domdec_tb.exit

12:                                               ; preds = %7
  %13 = getelementptr inbounds nuw i8, ptr %8, i64 372
  store i8 1, ptr %13, align 4
  %14 = getelementptr inbounds nuw i8, ptr %0, i64 328
  %15 = load i64, ptr %14, align 8
  %16 = trunc i64 %15 to i32
  %17 = load ptr, ptr %2, align 8
  %18 = getelementptr inbounds nuw i8, ptr %17, i64 376
  store i32 %16, ptr %18, align 8
  br label %_Z46dd_dlb_set_should_check_whether_to_turn_dlb_onP12gmx_domdec_tb.exit

_Z46dd_dlb_set_should_check_whether_to_turn_dlb_onP12gmx_domdec_tb.exit: ; preds = %12, %7, %1
  ret void
}